Certificate:
    Data:
        Version: 3 (0x2)
        Serial Number: 2 (0x2)
    Signature Algorithm: sm2sign-with-sm3
        Issuer: C=CN, ST=BJ, L=BJ, O=FOSAFER, OU=CA, CN=FOSAFERCA
        Validity
            Not Before: Jul  2 14:45:40 2021 GMT
            Not After : Jul  2 14:45:40 2022 GMT
        Subject: C=CN, ST=BJ, O=FOSAFER, OU=Enc, CN=enccert
        Subject Public Key Info:
            Public Key Algorithm: id-ecPublicKey
                Public-Key: (256 bit)
                pub:
                    04:b9:b6:7b:e0:69:de:c3:5a:a8:b2:c0:98:4f:81:
                    d0:f7:8d:81:e6:4f:e4:9a:19:eb:cf:e5:2f:15:ce:
                    bb:f9:3b:e7:de:a6:ba:a7:d0:a4:7a:4f:ff:81:da:
                    b6:e5:43:98:63:29:48:2e:52:e8:3f:49:b5:06:a8:
                    7e:0c:b6:66:53
                ASN1 OID: sm2p256v1
                NIST CURVE: SM2
        X509v3 extensions:
            X509v3 Basic Constraints: 
                CA:FALSE
            X509v3 Key Usage: 
                Key Encipherment
            Netscape Comment: 
                OpenSSL Generated Certificate
            X509v3 Subject Key Identifier: 
                BC:59:CD:BD:BD:3A:AF:31:1C:2B:A8:F8:20:0F:36:2B:02:7B:76:27
            X509v3 Authority Key Identifier: 
                keyid:C1:D9:AF:0F:EC:CB:48:46:E9:14:75:98:47:3B:C2:C1:74:96:86:41

            X509v3 Subject Alternative Name: 
                DNS:example.com, DNS:www.example.com, DNS:mail.example.com, DNS:ftp.example.com, IP Address:10.10.10.12, IP Address:127.0.0.1, IP Address:13:0:0:0:0:0:0:17
    Signature Algorithm: sm2sign-with-sm3
         30:46:02:21:00:9c:8f:61:e5:85:a7:66:da:ba:43:15:01:0c:
         f1:89:59:41:3b:da:f7:a5:07:36:ad:1f:10:5d:ab:ca:2f:f2:
         4a:02:21:00:c7:64:05:7b:b9:31:fc:c5:06:21:94:7e:98:66:
         6d:bf:63:52:61:8f:ab:70:df:31:be:c1:df:15:6d:7c:22:10
-----BEGIN CERTIFICATE-----
MIICijCCAi+gAwIBAgIBAjAKBggqgRzPVQGDdTBaMQswCQYDVQQGEwJDTjELMAkG
A1UECAwCQkoxCzAJBgNVBAcMAkJKMRAwDgYDVQQKDAdGT1NBRkVSMQswCQYDVQQL
DAJDQTESMBAGA1UEAwwJRk9TQUZFUkNBMB4XDTIxMDcwMjE0NDU0MFoXDTIyMDcw
MjE0NDU0MFowTDELMAkGA1UEBhMCQ04xCzAJBgNVBAgMAkJKMRAwDgYDVQQKDAdG
T1NBRkVSMQwwCgYDVQQLDANFbmMxEDAOBgNVBAMMB2VuY2NlcnQwWTATBgcqhkjO
PQIBBggqgRzPVQGCLQNCAAS5tnvgad7DWqiywJhPgdD3jYHmT+SaGevP5S8Vzrv5
O+feprqn0KR6T/+B2rblQ5hjKUguUug/SbUGqH4MtmZTo4HzMIHwMAkGA1UdEwQC
MAAwCwYDVR0PBAQDAgUgMCwGCWCGSAGG+EIBDQQfFh1PcGVuU1NMIEdlbmVyYXRl
ZCBDZXJ0aWZpY2F0ZTAdBgNVHQ4EFgQUvFnNvb06rzEcK6j4IA82KwJ7dicwHwYD
VR0jBBgwFoAUwdmvD+zLSEbpFHWYRzvCwXSWhkEwaAYDVR0RBGEwX4ILZXhhbXBs
ZS5jb22CD3d3dy5leGFtcGxlLmNvbYIQbWFpbC5leGFtcGxlLmNvbYIPZnRwLmV4
YW1wbGUuY29thwQKCgoMhwR/AAABhxAAEwAAAAAAAAAAAAAAAAAXMAoGCCqBHM9V
AYN1A0kAMEYCIQCcj2Hlhadm2rpDFQEM8YlZQTva96UHNq0fEF2ryi/ySgIhAMdk
BXu5MfzFBiGUfphmbb9jUmGPq3DfMb7B3xVtfCIQ
-----END CERTIFICATE-----
