Certificate:
    Data:
        Version: 3 (0x2)
        Serial Number: 3 (0x3)
        Signature Algorithm: sha256WithRSAEncryption
        Issuer: C=CN, ST=BJ, L=BJ, O=FOSAFER
        Validity
            Not Before: Jun 30 06:09:10 2021 GMT
            Not After : Jun 30 06:09:10 2022 GMT
        Subject: C=CN, ST=BJ, O=FOSAFER, OU=\xC3\xA5\xC2\x8C\xC2\x97 \xC3\xA4\xC2\xBA\xC2\xAC\xC3\xA8\xC2\xBF\xC2\x9C\xC3\xA9\xC2\x89\xC2\xB4\xC3\xA4\xC2\xBF\xC2\xA1\xC3\xA6\xC2\x81\xC2\xAF\xC3\xA6\xC2\x8A\xC2\x80\xC3\xA6\xC2\x9C\xC2\xAF\xC3\xA6\xC2\x9C\xC2\x89\xC3\xA9\xC2\x99\xC2\x90\xC3\xA5\xC2\x85\xC2\xAC\xC3\xA5\xC2\x8F\xC2\xB81, CN=10.10.30.118
        Subject Public Key Info:
            Public Key Algorithm: rsaEncryption
                RSA Public-Key: (2048 bit)
                Modulus:
                    00:e1:1b:77:10:6f:4c:07:48:24:d2:e7:b3:4a:b0:
                    02:86:2a:10:75:ed:38:c6:d5:2a:25:47:1a:3d:0d:
                    c7:33:31:51:71:fd:00:7e:90:a5:bc:0d:79:c3:51:
                    3b:f4:3f:35:d2:72:5e:7b:0f:db:4d:87:e0:d8:4f:
                    73:96:58:4a:82:1a:a3:ec:05:1a:a2:7b:cd:27:3d:
                    29:b7:4e:ac:39:0e:41:5c:20:c3:6d:75:f3:2d:30:
                    0c:f0:6c:1f:03:f3:22:5e:b3:03:50:ac:b7:7d:7e:
                    b7:fc:79:d0:30:57:03:61:21:ae:0d:c5:2b:11:19:
                    c2:15:34:bc:ce:76:ed:04:2c:2b:58:bd:50:0e:23:
                    3c:0a:8d:9b:99:32:4d:42:87:81:62:9d:84:a3:36:
                    fd:d7:f4:ce:0f:5e:3d:aa:1e:bc:ad:78:5d:4f:a3:
                    52:b1:32:2c:70:b0:56:58:c3:2b:06:ec:54:ec:de:
                    64:f5:39:ca:be:dd:a0:6c:b0:dd:ba:48:e3:56:db:
                    27:b7:ad:22:a5:db:51:72:ca:69:8e:21:c4:ea:59:
                    d0:a6:72:5a:c3:13:ce:e5:1b:42:2d:f3:b7:86:a6:
                    74:88:94:67:31:cc:83:8f:93:04:30:71:9d:c5:28:
                    8d:b0:0c:bb:ea:f7:3c:bc:a3:c6:48:b8:93:ab:57:
                    30:01
                Exponent: 65537 (0x10001)
        X509v3 extensions:
            X509v3 Subject Alternative Name: 
                DNS:seansoft.org, IP Address:10.10.30.118, IP Address:10.10.30.210
    Signature Algorithm: sha256WithRSAEncryption
         45:1f:3e:2e:f8:1d:52:9a:c4:b0:16:e8:09:c8:76:2e:82:bf:
         99:61:cb:f1:c6:e3:c0:b7:ed:6e:75:81:f1:e1:30:8c:2d:54:
         24:22:5c:9d:19:41:35:e4:ba:34:a8:81:32:a5:56:24:a4:45:
         65:2b:d2:3c:fc:8e:c8:98:5b:17:09:7d:39:8d:47:2c:23:d6:
         f6:ef:7f:d3:bd:01:67:26:42:30:53:38:c2:66:ab:dd:14:23:
         35:62:86:9f:4b:f3:e5:39:ce:71:fd:2a:b3:cc:e8:15:56:fb:
         86:67:8b:e3:f1:43:36:3e:40:54:81:e7:ad:16:db:8f:51:b6:
         0c:b8:2a:4c:ee:13:e4:45:73:11:32:f5:d9:9f:ee:b0:87:98:
         9e:08:34:d1:55:f1:44:d9:97:64:cf:77:0c:cc:cb:4e:a6:5a:
         6a:9a:3f:65:a1:f2:5d:0d:e6:34:3b:0f:94:d8:9a:f5:8e:e2:
         ed:5c:be:d8:4d:5b:f8:93:58:33:ca:f4:e1:d4:da:30:28:9b:
         9c:1f:5b:02:30:fc:d6:16:5a:39:9d:b6:8a:b1:41:a8:b3:02:
         74:29:46:20:e1:4c:b1:bd:fe:02:7a:cb:ef:f2:1c:8a:de:17:
         d0:f8:16:7f:5a:48:5f:37:d4:9e:0f:b6:f1:9e:20:cd:59:0a:
         3d:5d:5c:99
-----BEGIN CERTIFICATE-----
MIIDdDCCAlygAwIBAgIBAzANBgkqhkiG9w0BAQsFADA5MQswCQYDVQQGEwJDTjEL
MAkGA1UECAwCQkoxCzAJBgNVBAcMAkJKMRAwDgYDVQQKDAdGT1NBRkVSMB4XDTIx
MDYzMDA2MDkxMFoXDTIyMDYzMDA2MDkxMFowgZgxCzAJBgNVBAYTAkNOMQswCQYD
VQQIDAJCSjEQMA4GA1UECgwHRk9TQUZFUjFTMFEGA1UECwxKw6XCjMKXIMOkwrrC
rMOowr/CnMOpwonCtMOkwr/CocOmwoHCr8OmworCgMOmwpzCr8OmwpzCicOpwpnC
kMOlwoXCrMOlwo/CuDExFTATBgNVBAMMDDEwLjEwLjMwLjExODCCASIwDQYJKoZI
hvcNAQEBBQADggEPADCCAQoCggEBAOEbdxBvTAdIJNLns0qwAoYqEHXtOMbVKiVH
Gj0NxzMxUXH9AH6QpbwNecNRO/Q/NdJyXnsP202H4NhPc5ZYSoIao+wFGqJ7zSc9
KbdOrDkOQVwgw2118y0wDPBsHwPzIl6zA1Cst31+t/x50DBXA2Ehrg3FKxEZwhU0
vM527QQsK1i9UA4jPAqNm5kyTUKHgWKdhKM2/df0zg9ePaoevK14XU+jUrEyLHCw
VljDKwbsVOzeZPU5yr7doGyw3bpI41bbJ7etIqXbUXLKaY4hxOpZ0KZyWsMTzuUb
Qi3zt4amdIiUZzHMg4+TBDBxncUojbAMu+r3PLyjxki4k6tXMAECAwEAAaMnMCUw
IwYDVR0RBBwwGoIMc2VhbnNvZnQub3JnhwQKCh52hwQKCh7SMA0GCSqGSIb3DQEB
CwUAA4IBAQBFHz4u+B1SmsSwFugJyHYugr+ZYcvxxuPAt+1udYHx4TCMLVQkIlyd
GUE15Lo0qIEypVYkpEVlK9I8/I7ImFsXCX05jUcsI9b273/TvQFnJkIwUzjCZqvd
FCM1YoafS/PlOc5x/SqzzOgVVvuGZ4vj8UM2PkBUgeetFtuPUbYMuCpM7hPkRXMR
MvXZn+6wh5ieCDTRVfFE2Zdkz3cMzMtOplpqmj9lofJdDeY0Ow+U2Jr1juLtXL7Y
TVv4k1gzyvTh1NowKJucH1sCMPzWFlo5nbaKsUGoswJ0KUYg4Uyxvf4Cesvv8hyK
3hfQ+BZ/WkhfN9SeD7bxniDNWQo9XVyZ
-----END CERTIFICATE-----
