Certificate:
    Data:
        Version: 3 (0x2)
        Serial Number: 1 (0x1)
    Signature Algorithm: sm2sign-with-sm3
        Issuer: C=CN, ST=BJ, L=BJ, O=FOSAFER, OU=CA, CN=FOSAFERCA
        Validity
            Not Before: Jul  2 14:44:12 2021 GMT
            Not After : Jul  2 14:44:12 2022 GMT
        Subject: C=CN, ST=BJ, O=FOSAFER, OU=Sign, CN=signcert
        Subject Public Key Info:
            Public Key Algorithm: id-ecPublicKey
                Public-Key: (256 bit)
                pub:
                    04:13:1d:ec:b7:c0:ca:f6:a4:21:66:66:25:de:c8:
                    45:ed:94:6b:98:62:13:2c:6e:e0:09:7f:f5:49:c2:
                    d3:c8:9c:a8:19:1c:cf:c9:74:a0:3d:81:a5:65:99:
                    51:c8:e6:62:3e:89:c1:4b:74:8a:1b:a1:3b:3b:a3:
                    8a:0b:4a:66:e8
                ASN1 OID: sm2p256v1
                NIST CURVE: SM2
        X509v3 extensions:
            X509v3 Basic Constraints: 
                CA:FALSE
            X509v3 Key Usage: 
                Digital Signature
            Netscape Comment: 
                OpenSSL Generated Certificate
            X509v3 Subject Key Identifier: 
                01:34:E3:48:C9:04:88:9D:87:47:0A:D0:69:C5:C5:C5:B4:1E:66:69
            X509v3 Authority Key Identifier: 
                keyid:C1:D9:AF:0F:EC:CB:48:46:E9:14:75:98:47:3B:C2:C1:74:96:86:41

            X509v3 Subject Alternative Name: 
                DNS:example.com, DNS:www.example.com, DNS:mail.example.com, DNS:ftp.example.com, IP Address:10.10.10.12, IP Address:127.0.0.1, IP Address:13:0:0:0:0:0:0:17
    Signature Algorithm: sm2sign-with-sm3
         30:44:02:20:2e:f2:c5:b6:fe:97:be:64:4a:48:5a:69:37:67:
         aa:6f:03:4c:b4:3f:ef:e8:e8:bb:74:f8:ca:cd:ee:d5:ca:1a:
         02:20:3a:37:6e:8b:1c:e6:5b:3f:78:c2:55:0a:2f:98:3d:df:
         c3:2c:1b:0a:20:94:42:f1:f2:74:a6:ad:d3:d3:ba:be
-----BEGIN CERTIFICATE-----
MIICijCCAjGgAwIBAgIBATAKBggqgRzPVQGDdTBaMQswCQYDVQQGEwJDTjELMAkG
A1UECAwCQkoxCzAJBgNVBAcMAkJKMRAwDgYDVQQKDAdGT1NBRkVSMQswCQYDVQQL
DAJDQTESMBAGA1UEAwwJRk9TQUZFUkNBMB4XDTIxMDcwMjE0NDQxMloXDTIyMDcw
MjE0NDQxMlowTjELMAkGA1UEBhMCQ04xCzAJBgNVBAgMAkJKMRAwDgYDVQQKDAdG
T1NBRkVSMQ0wCwYDVQQLDARTaWduMREwDwYDVQQDDAhzaWduY2VydDBZMBMGByqG
SM49AgEGCCqBHM9VAYItA0IABBMd7LfAyvakIWZmJd7IRe2Ua5hiEyxu4Al/9UnC
08icqBkcz8l0oD2BpWWZUcjmYj6JwUt0ihuhOzujigtKZuijgfMwgfAwCQYDVR0T
BAIwADALBgNVHQ8EBAMCB4AwLAYJYIZIAYb4QgENBB8WHU9wZW5TU0wgR2VuZXJh
dGVkIENlcnRpZmljYXRlMB0GA1UdDgQWBBQBNONIyQSInYdHCtBpxcXFtB5maTAf
BgNVHSMEGDAWgBTB2a8P7MtIRukUdZhHO8LBdJaGQTBoBgNVHREEYTBfggtleGFt
cGxlLmNvbYIPd3d3LmV4YW1wbGUuY29tghBtYWlsLmV4YW1wbGUuY29tgg9mdHAu
ZXhhbXBsZS5jb22HBAoKCgyHBH8AAAGHEAATAAAAAAAAAAAAAAAAABcwCgYIKoEc
z1UBg3UDRwAwRAIgLvLFtv6XvmRKSFppN2eqbwNMtD/v6Oi7dPjKze7VyhoCIDo3
bosc5ls/eMJVCi+YPd/DLBsKIJRC8fJ0pq3T07q+
-----END CERTIFICATE-----
