Certificate:
    Data:
        Version: 3 (0x2)
        Serial Number: 1 (0x1)
    Signature Algorithm: sm2sign-with-sm3
        Issuer: C=CN, ST=BJ, L=BJ, O=FOSAFER, OU=DEV, CN=FOSAFERDEV
        Validity
            Not Before: Jun 23 01:56:53 2021 GMT
            Not After : Jun 23 01:56:53 2022 GMT
        Subject: C=CN, ST=BJ, O=FOSAFER, OU=Sign, CN=serversign
        Subject Public Key Info:
            Public Key Algorithm: id-ecPublicKey
                Public-Key: (256 bit)
                pub:
                    04:e6:0e:94:d9:20:75:d3:5f:ef:79:2b:07:0b:39:
                    1b:7d:ca:68:0c:95:8a:2e:ed:ca:41:0c:7b:77:2b:
                    5c:4a:85:e6:a4:cc:8f:e0:62:66:82:89:44:4e:e1:
                    df:e1:91:1b:7d:68:6a:4d:d8:8c:05:2e:19:47:c2:
                    81:76:92:68:90
                ASN1 OID: sm2p256v1
                NIST CURVE: SM2
        X509v3 extensions:
            X509v3 Basic Constraints: 
                CA:FALSE
            X509v3 Key Usage: 
                Digital Signature
            Netscape Comment: 
                OpenSSL Generated Certificate
            X509v3 Subject Key Identifier: 
                36:AB:D9:72:CD:72:C1:5D:CB:82:C1:8A:F3:ED:89:22:09:EB:CE:2C
            X509v3 Authority Key Identifier: 
                keyid:9F:3B:AE:65:7E:0C:E2:44:E7:D5:B9:FF:42:78:D3:3B:90:A4:20:1A

            X509v3 Subject Alternative Name: 
                DNS:seanson.org, DNS:seansoft.org, IP Address:10.10.30.172
    Signature Algorithm: sm2sign-with-sm3
         30:44:02:20:16:a7:15:68:d8:0e:6e:26:19:48:65:5f:a8:22:
         de:35:a2:7c:bb:7b:3d:60:8c:6c:e9:68:a0:5f:c6:67:bc:6c:
         02:20:5d:f1:6e:89:be:e2:5d:7d:eb:31:7c:aa:6f:a8:65:a4:
         25:03:49:e5:fe:69:cb:62:c1:99:bf:27:6f:bc:cf:0b
-----BEGIN CERTIFICATE-----
MIICUDCCAfegAwIBAgIBATAKBggqgRzPVQGDdTBcMQswCQYDVQQGEwJDTjELMAkG
A1UECAwCQkoxCzAJBgNVBAcMAkJKMRAwDgYDVQQKDAdGT1NBRkVSMQwwCgYDVQQL
DANERVYxEzARBgNVBAMMCkZPU0FGRVJERVYwHhcNMjEwNjIzMDE1NjUzWhcNMjIw
NjIzMDE1NjUzWjBQMQswCQYDVQQGEwJDTjELMAkGA1UECAwCQkoxEDAOBgNVBAoM
B0ZPU0FGRVIxDTALBgNVBAsMBFNpZ24xEzARBgNVBAMMCnNlcnZlcnNpZ24wWTAT
BgcqhkjOPQIBBggqgRzPVQGCLQNCAATmDpTZIHXTX+95KwcLORt9ymgMlYou7cpB
DHt3K1xKheakzI/gYmaCiURO4d/hkRt9aGpN2IwFLhlHwoF2kmiQo4G1MIGyMAkG
A1UdEwQCMAAwCwYDVR0PBAQDAgeAMCwGCWCGSAGG+EIBDQQfFh1PcGVuU1NMIEdl
bmVyYXRlZCBDZXJ0aWZpY2F0ZTAdBgNVHQ4EFgQUNqvZcs1ywV3LgsGK8+2JIgnr
ziwwHwYDVR0jBBgwFoAUnzuuZX4M4kTn1bn/QnjTO5CkIBowKgYDVR0RBCMwIYIL
c2VhbnNvbi5vcmeCDHNlYW5zb2Z0Lm9yZ4cECgoerDAKBggqgRzPVQGDdQNHADBE
AiAWpxVo2A5uJhlIZV+oIt41ony7ez1gjGzpaKBfxme8bAIgXfFuib7iXX3rMXyq
b6hlpCUDSeX+actiwZm/J2+8zws=
-----END CERTIFICATE-----
