Certificate:
    Data:
        Version: 3 (0x2)
        Serial Number: 2 (0x2)
    Signature Algorithm: sm2sign-with-sm3
        Issuer: C=CN, ST=BJ, L=BJ, O=FOSAFER, OU=DEV, CN=FOSAFERDEV
        Validity
            Not Before: Jun 23 01:57:00 2021 GMT
            Not After : Jun 23 01:57:00 2022 GMT
        Subject: C=CN, ST=BJ, O=FOSAFER, OU=Enc, CN=serverenc
        Subject Public Key Info:
            Public Key Algorithm: id-ecPublicKey
                Public-Key: (256 bit)
                pub:
                    04:be:8b:0e:04:c3:82:40:ec:e0:0e:c9:a2:91:25:
                    88:11:1c:0d:a8:84:5c:45:9d:de:82:d0:3d:7d:d3:
                    32:51:b7:12:88:8d:97:10:47:4c:3d:22:9e:9c:f6:
                    63:19:77:16:d1:7a:29:e2:c5:9a:94:e8:cf:20:d6:
                    ae:a5:e9:2f:e1
                ASN1 OID: sm2p256v1
                NIST CURVE: SM2
        X509v3 extensions:
            X509v3 Basic Constraints: 
                CA:FALSE
            X509v3 Key Usage: 
                Key Encipherment
            Netscape Comment: 
                OpenSSL Generated Certificate
            X509v3 Subject Key Identifier: 
                EC:6E:C8:7E:77:57:39:20:22:98:BF:9E:EF:FF:36:75:B9:1A:FC:6B
            X509v3 Authority Key Identifier: 
                keyid:9F:3B:AE:65:7E:0C:E2:44:E7:D5:B9:FF:42:78:D3:3B:90:A4:20:1A

            X509v3 Subject Alternative Name: 
                DNS:seanson.org, DNS:seansoft.org, IP Address:10.10.30.172
    Signature Algorithm: sm2sign-with-sm3
         30:46:02:21:00:fc:39:04:af:eb:1d:ff:19:31:84:1b:ae:c1:
         10:a4:d6:31:d6:e5:6d:62:9c:7d:f9:f1:8d:52:70:da:63:da:
         dc:02:21:00:b2:33:da:a4:a0:d1:4e:3d:0f:70:5c:33:55:18:
         d7:44:15:83:10:f8:b1:7a:55:ec:db:f8:77:7d:28:a2:a4:55
-----BEGIN CERTIFICATE-----
MIICUDCCAfWgAwIBAgIBAjAKBggqgRzPVQGDdTBcMQswCQYDVQQGEwJDTjELMAkG
A1UECAwCQkoxCzAJBgNVBAcMAkJKMRAwDgYDVQQKDAdGT1NBRkVSMQwwCgYDVQQL
DANERVYxEzARBgNVBAMMCkZPU0FGRVJERVYwHhcNMjEwNjIzMDE1NzAwWhcNMjIw
NjIzMDE1NzAwWjBOMQswCQYDVQQGEwJDTjELMAkGA1UECAwCQkoxEDAOBgNVBAoM
B0ZPU0FGRVIxDDAKBgNVBAsMA0VuYzESMBAGA1UEAwwJc2VydmVyZW5jMFkwEwYH
KoZIzj0CAQYIKoEcz1UBgi0DQgAEvosOBMOCQOzgDsmikSWIERwNqIRcRZ3egtA9
fdMyUbcSiI2XEEdMPSKenPZjGXcW0Xop4sWalOjPINaupekv4aOBtTCBsjAJBgNV
HRMEAjAAMAsGA1UdDwQEAwIFIDAsBglghkgBhvhCAQ0EHxYdT3BlblNTTCBHZW5l
cmF0ZWQgQ2VydGlmaWNhdGUwHQYDVR0OBBYEFOxuyH53VzkgIpi/nu//NnW5Gvxr
MB8GA1UdIwQYMBaAFJ87rmV+DOJE59W5/0J40zuQpCAaMCoGA1UdEQQjMCGCC3Nl
YW5zb24ub3JnggxzZWFuc29mdC5vcmeHBAoKHqwwCgYIKoEcz1UBg3UDSQAwRgIh
APw5BK/rHf8ZMYQbrsEQpNYx1uVtYpx9+fGNUnDaY9rcAiEAsjPapKDRTj0PcFwz
VRjXRBWDEPixelXs2/h3fSiipFU=
-----END CERTIFICATE-----
