Certificate:
    Data:
        Version: 3 (0x2)
        Serial Number: 3 (0x3)
    Signature Algorithm: sm2sign-with-sm3
        Issuer: C=CN, ST=BJ, L=BJ, O=FOSAFER, OU=DEV, CN=FOSAFERDEV
        Validity
            Not Before: Jun 30 05:23:12 2021 GMT
            Not After : Jun 30 05:23:12 2022 GMT
        Subject: C=CN, ST=BJ, O=FOSAFER, OU=Sign, CN=smauth
        Subject Public Key Info:
            Public Key Algorithm: id-ecPublicKey
                Public-Key: (256 bit)
                pub:
                    04:ee:1f:b4:8b:f5:71:a6:27:a9:eb:62:aa:a1:a5:
                    db:72:36:b3:19:79:ad:04:f3:30:fc:f7:d7:64:07:
                    74:04:9b:45:65:41:82:e9:f3:e0:5b:12:67:11:d2:
                    94:f4:b6:87:85:71:36:77:22:22:9e:f5:3a:45:e8:
                    ee:86:ad:36:b5
                ASN1 OID: sm2p256v1
                NIST CURVE: SM2
        X509v3 extensions:
            X509v3 Basic Constraints: 
                CA:FALSE
            X509v3 Key Usage: 
                Digital Signature
            Netscape Comment: 
                OpenSSL Generated Certificate
            X509v3 Subject Key Identifier: 
                5F:B4:64:48:4F:EB:A1:14:33:9E:D4:40:DB:7D:71:7A:41:C5:88:9C
            X509v3 Authority Key Identifier: 
                keyid:9F:3B:AE:65:7E:0C:E2:44:E7:D5:B9:FF:42:78:D3:3B:90:A4:20:1A

            X509v3 Subject Alternative Name: 
                DNS:seanson.org, DNS:seansoft.org, IP Address:10.10.30.172
    Signature Algorithm: sm2sign-with-sm3
         30:45:02:21:00:f1:df:53:20:94:43:90:37:3e:da:d1:34:09:
         2c:80:aa:0e:13:89:b6:28:81:08:df:9b:25:af:e9:c0:1d:a2:
         55:02:20:55:bf:32:61:16:d8:d7:ce:49:80:ba:36:99:7c:55:
         36:60:21:c5:9b:2a:af:0f:4a:4c:88:16:b8:1b:9a:f9:7b
-----BEGIN CERTIFICATE-----
MIICTTCCAfOgAwIBAgIBAzAKBggqgRzPVQGDdTBcMQswCQYDVQQGEwJDTjELMAkG
A1UECAwCQkoxCzAJBgNVBAcMAkJKMRAwDgYDVQQKDAdGT1NBRkVSMQwwCgYDVQQL
DANERVYxEzARBgNVBAMMCkZPU0FGRVJERVYwHhcNMjEwNjMwMDUyMzEyWhcNMjIw
NjMwMDUyMzEyWjBMMQswCQYDVQQGEwJDTjELMAkGA1UECAwCQkoxEDAOBgNVBAoM
B0ZPU0FGRVIxDTALBgNVBAsMBFNpZ24xDzANBgNVBAMMBnNtYXV0aDBZMBMGByqG
SM49AgEGCCqBHM9VAYItA0IABO4ftIv1caYnqetiqqGl23I2sxl5rQTzMPz312QH
dASbRWVBgunz4FsSZxHSlPS2h4VxNnciIp71OkXo7oatNrWjgbUwgbIwCQYDVR0T
BAIwADALBgNVHQ8EBAMCB4AwLAYJYIZIAYb4QgENBB8WHU9wZW5TU0wgR2VuZXJh
dGVkIENlcnRpZmljYXRlMB0GA1UdDgQWBBRftGRIT+uhFDOe1EDbfXF6QcWInDAf
BgNVHSMEGDAWgBSfO65lfgziROfVuf9CeNM7kKQgGjAqBgNVHREEIzAhggtzZWFu
c29uLm9yZ4IMc2VhbnNvZnQub3JnhwQKCh6sMAoGCCqBHM9VAYN1A0gAMEUCIQDx
31MglEOQNz7a0TQJLICqDhOJtiiBCN+bJa/pwB2iVQIgVb8yYRbY185JgLo2mXxV
NmAhxZsqrw9KTIgWuBua+Xs=
-----END CERTIFICATE-----
